; Function Attrs: mustprogress nofree norecurse nosync nounwind willreturn memory(readwrite, inaccessiblemem: none) uwtable
define noundef zeroext i1 @_ZN3g2o16OptimizableGraph4Edge14setParameterIdEii(ptr noundef nonnull readonly align 8 captures(none) dereferenceable(176) %0, i32 noundef %1, i32 noundef %2) local_unnamed_addr #16 align 2 {
  %4 = getelementptr inbounds nuw i8, ptr %0, i64 128
  %5 = getelementptr inbounds nuw i8, ptr %0, i64 136
  %6 = load ptr, ptr %5, align 8, !tbaa !82
  %7 = load ptr, ptr %4, align 8, !tbaa !64
  %8 = ptrtoint ptr %6 to i64
  %9 = ptrtoint ptr %7 to i64
  %10 = sub i64 %8, %9
  %11 = lshr exact i64 %10, 3
  %12 = trunc i64 %11 to i32
  %.not = icmp slt i32 %1, %12
  %13 = icmp sgt i32 %1, -1
  %or.cond.not = and i1 %13, %.not
  br i1 %or.cond.not, label %14, label %21

14:                                               ; preds = %3
  %15 = zext nneg i32 %1 to i64
  %16 = getelementptr inbounds nuw ptr, ptr %7, i64 %15
  %17 = load ptr, ptr %16, align 8, !tbaa !83
  store ptr null, ptr %17, align 8, !tbaa !85
  %18 = getelementptr inbounds nuw i8, ptr %0, i64 152
  %19 = load ptr, ptr %18, align 8, !tbaa !62
  %20 = getelementptr inbounds nuw i32, ptr %19, i64 %15
  store i32 %2, ptr %20, align 4, !tbaa !87
  br label %21

21:                                               ; preds = %3, %14
  ret i1 %or.cond.not
}